target datalayout = "e-m:e-p270:32:32-p271:32:32-p272:64:64-i64:64-i128:128-f80:128-n8:16:32:64-S128"
target triple = "x86_64-pc-linux-gnu"

%"struct.(anonymous namespace)::Inclusion" = type { ptr, %"struct.icu_77::UInitOnce" }
%"struct.icu_77::UInitOnce" = type { %"struct.std::atomic", i32 }
%"struct.std::atomic" = type { %"struct.std::__atomic_base" }
%"struct.std::__atomic_base" = type { i32 }

@_ZN12_GLOBAL__N_111gInclusionsE = internal global [47 x %"struct.(anonymous namespace)::Inclusion"] zeroinitializer, align 16
@_ZN12_GLOBAL__N_14setsE = internal global [76 x ptr] zeroinitializer, align 16
@_ZN12_GLOBAL__N_14mapsE = internal global [27 x ptr] zeroinitializer, align 16

; Function Attrs: noinline noreturn nounwind uwtable
define linkonce_odr hidden void @__clang_call_terminate(ptr noundef %0) #7 comdat {
  %2 = call ptr @__cxa_begin_catch(ptr %0) #8
  call void @_ZSt9terminatev() #9
  unreachable
}

; Function Attrs: mustprogress nounwind uwtable
define linkonce_odr noundef i32 @_ZStanSt12memory_orderSt23__memory_order_modifier(i32 noundef %0, i32 noundef %1) #4 comdat {
  %3 = alloca i32, align 4
  %4 = alloca i32, align 4
  store i32 %0, ptr %3, align 4, !tbaa !77
  store i32 %1, ptr %4, align 4, !tbaa !79
  %5 = load i32, ptr %3, align 4, !tbaa !77
  %6 = load i32, ptr %4, align 4, !tbaa !79
  %7 = and i32 %5, %6
  ret i32 %7
}

; Function Attrs: alwaysinline mustprogress nounwind uwtable
define linkonce_odr void @_ZNSt13__atomic_baseIiE5storeEiSt12memory_order(ptr noundef nonnull align 4 dereferenceable(4) %0, i32 noundef %1, i32 noundef %2) #6 comdat align 2 personality ptr @__gxx_personality_v0 {
  %4 = alloca ptr, align 8
  %5 = alloca i32, align 4
  %6 = alloca i32, align 4
  %7 = alloca i32, align 4
  %8 = alloca i32, align 4
  store ptr %0, ptr %4, align 8, !tbaa !75
  store i32 %1, ptr %5, align 4, !tbaa !11
  store i32 %2, ptr %6, align 4, !tbaa !77
  %9 = load ptr, ptr %4, align 8
  call void @llvm.lifetime.start.p0(i64 4, ptr %7) #8
  %10 = load i32, ptr %6, align 4, !tbaa !77
  %11 = invoke noundef i32 @_ZStanSt12memory_orderSt23__memory_order_modifier(i32 noundef %10, i32 noundef 65535)
          to label %12 unwind label %32

12:                                               ; preds = %3
  store i32 %11, ptr %7, align 4, !tbaa !77
  br label %13

13:                                               ; preds = %12
  br label %14

14:                                               ; preds = %13
  br label %15

15:                                               ; preds = %14
  br label %16

16:                                               ; preds = %15
  br label %17

17:                                               ; preds = %16
  br label %18

18:                                               ; preds = %17
  br label %19

19:                                               ; preds = %18
  br label %20

20:                                               ; preds = %19
  br label %21

21:                                               ; preds = %20
  %22 = getelementptr inbounds nuw %"struct.std::__atomic_base", ptr %9, i32 0, i32 0
  %23 = load i32, ptr %6, align 4, !tbaa !77
  %24 = load i32, ptr %5, align 4, !tbaa !11
  store i32 %24, ptr %8, align 4, !tbaa !11
  switch i32 %23, label %25 [
    i32 3, label %27
    i32 5, label %29
  ]

25:                                               ; preds = %21
  %26 = load i32, ptr %8, align 4
  store atomic i32 %26, ptr %22 monotonic, align 4
  br label %31

27:                                               ; preds = %21
  %28 = load i32, ptr %8, align 4
  store atomic i32 %28, ptr %22 release, align 4
  br label %31

29:                                               ; preds = %21
  %30 = load i32, ptr %8, align 4
  store atomic i32 %30, ptr %22 seq_cst, align 4
  br label %31

31:                                               ; preds = %29, %27, %25
  call void @llvm.lifetime.end.p0(i64 4, ptr %7) #8
  ret void

32:                                               ; preds = %3
  %33 = landingpad { ptr, i32 }
          catch ptr null
  %34 = extractvalue { ptr, i32 } %33, 0
  call void @__clang_call_terminate(ptr %34) #9
  unreachable
}

; Function Attrs: mustprogress nounwind uwtable
define linkonce_odr noundef i32 @_ZNSt13__atomic_baseIiEaSEi(ptr noundef nonnull align 4 dereferenceable(4) %0, i32 noundef %1) #4 comdat align 2 {
  %3 = alloca ptr, align 8
  %4 = alloca i32, align 4
  store ptr %0, ptr %3, align 8, !tbaa !75
  store i32 %1, ptr %4, align 4, !tbaa !11
  %5 = load ptr, ptr %3, align 8
  %6 = load i32, ptr %4, align 4, !tbaa !11
  call void @_ZNSt13__atomic_baseIiE5storeEiSt12memory_order(ptr noundef nonnull align 4 dereferenceable(4) %5, i32 noundef %6, i32 noundef 5) #8
  %7 = load i32, ptr %4, align 4, !tbaa !11
  ret i32 %7
}

; Function Attrs: mustprogress nounwind uwtable
define linkonce_odr void @_ZN6icu_779UInitOnce5resetEv(ptr noundef nonnull align 4 dereferenceable(8) %0) #4 comdat align 2 {
  %2 = alloca ptr, align 8
  store ptr %0, ptr %2, align 8, !tbaa !23
  %3 = load ptr, ptr %2, align 8
  %4 = getelementptr inbounds nuw %"struct.icu_77::UInitOnce", ptr %3, i32 0, i32 0
  %5 = call noundef i32 @_ZNSt13__atomic_baseIiEaSEi(ptr noundef nonnull align 4 dereferenceable(4) %4, i32 noundef 0) #8
  ret void
}

; Function Attrs: mustprogress uwtable
define internal noundef signext i8 @_ZN12_GLOBAL__N_127characterproperties_cleanupEv() #0 {
  %1 = alloca ptr, align 8
  %2 = alloca ptr, align 8
  %3 = alloca ptr, align 8
  %4 = alloca ptr, align 8
  %5 = alloca i32, align 4
  %6 = alloca i32, align 4
  call void @llvm.lifetime.start.p0(i64 8, ptr %1) #8
  store ptr @_ZN12_GLOBAL__N_111gInclusionsE, ptr %1, align 8, !tbaa !13
  call void @llvm.lifetime.start.p0(i64 8, ptr %2) #8
  store ptr @_ZN12_GLOBAL__N_111gInclusionsE, ptr %2, align 8, !tbaa !13
  call void @llvm.lifetime.start.p0(i64 8, ptr %3) #8
  store ptr getelementptr inbounds (%"struct.(anonymous namespace)::Inclusion", ptr @_ZN12_GLOBAL__N_111gInclusionsE, i64 47), ptr %3, align 8, !tbaa !13
  br label %7

7:                                                ; preds = %24, %0
  %8 = load ptr, ptr %2, align 8, !tbaa !13
  %9 = load ptr, ptr %3, align 8, !tbaa !13
  %10 = icmp ne ptr %8, %9
  br i1 %10, label %12, label %11

11:                                               ; preds = %7
  call void @llvm.lifetime.end.p0(i64 8, ptr %3) #8
  call void @llvm.lifetime.end.p0(i64 8, ptr %2) #8
  call void @llvm.lifetime.end.p0(i64 8, ptr %1) #8
  br label %27

12:                                               ; preds = %7
  call void @llvm.lifetime.start.p0(i64 8, ptr %4) #8
  %13 = load ptr, ptr %2, align 8, !tbaa !13
  store ptr %13, ptr %4, align 8, !tbaa !13
  %14 = load ptr, ptr %4, align 8, !tbaa !13
  %15 = getelementptr inbounds nuw %"struct.(anonymous namespace)::Inclusion", ptr %14, i32 0, i32 0
  %16 = load ptr, ptr %15, align 8, !tbaa !15
  %17 = icmp eq ptr %16, null
  br i1 %17, label %19, label %18

18:                                               ; preds = %12
  call void @_ZN6icu_7710UnicodeSetD1Ev(ptr noundef nonnull align 8 dereferenceable(200) %16) #8
  call void @_ZN6icu_777UMemorydlEPv(ptr noundef %16) #8
  br label %19

19:                                               ; preds = %18, %12
  %20 = load ptr, ptr %4, align 8, !tbaa !13
  %21 = getelementptr inbounds nuw %"struct.(anonymous namespace)::Inclusion", ptr %20, i32 0, i32 0
  store ptr null, ptr %21, align 8, !tbaa !15
  %22 = load ptr, ptr %4, align 8, !tbaa !13
  %23 = getelementptr inbounds nuw %"struct.(anonymous namespace)::Inclusion", ptr %22, i32 0, i32 1
  call void @_ZN6icu_779UInitOnce5resetEv(ptr noundef nonnull align 4 dereferenceable(8) %23)
  call void @llvm.lifetime.end.p0(i64 8, ptr %4) #8
  br label %24

24:                                               ; preds = %19
  %25 = load ptr, ptr %2, align 8, !tbaa !13
  %26 = getelementptr inbounds nuw %"struct.(anonymous namespace)::Inclusion", ptr %25, i32 1
  store ptr %26, ptr %2, align 8, !tbaa !13
  br label %7

27:                                               ; preds = %11
  call void @llvm.lifetime.start.p0(i64 4, ptr %5) #8
  store i32 0, ptr %5, align 4, !tbaa !11
  br label %28

28:                                               ; preds = %43, %27
  %29 = load i32, ptr %5, align 4, !tbaa !11
  %30 = icmp slt i32 %29, 76
  br i1 %30, label %32, label %31

31:                                               ; preds = %28
  call void @llvm.lifetime.end.p0(i64 4, ptr %5) #8
  br label %46

32:                                               ; preds = %28
  %33 = load i32, ptr %5, align 4, !tbaa !11
  %34 = sext i32 %33 to i64
  %35 = getelementptr inbounds [76 x ptr], ptr @_ZN12_GLOBAL__N_14setsE, i64 0, i64 %34
  %36 = load ptr, ptr %35, align 8, !tbaa !26
  %37 = icmp eq ptr %36, null
  br i1 %37, label %39, label %38

38:                                               ; preds = %32
  call void @_ZN6icu_7710UnicodeSetD1Ev(ptr noundef nonnull align 8 dereferenceable(200) %36) #8
  call void @_ZN6icu_777UMemorydlEPv(ptr noundef %36) #8
  br label %39

39:                                               ; preds = %38, %32
  %40 = load i32, ptr %5, align 4, !tbaa !11
  %41 = sext i32 %40 to i64
  %42 = getelementptr inbounds [76 x ptr], ptr @_ZN12_GLOBAL__N_14setsE, i64 0, i64 %41
  store ptr null, ptr %42, align 8, !tbaa !26
  br label %43

43:                                               ; preds = %39
  %44 = load i32, ptr %5, align 4, !tbaa !11
  %45 = add nsw i32 %44, 1
  store i32 %45, ptr %5, align 4, !tbaa !11
  br label %28, !llvm.loop !73

46:                                               ; preds = %31
  call void @llvm.lifetime.start.p0(i64 4, ptr %6) #8
  store i32 0, ptr %6, align 4, !tbaa !11
  br label %47

47:                                               ; preds = %59, %46
  %48 = load i32, ptr %6, align 4, !tbaa !11
  %49 = icmp slt i32 %48, 27
  br i1 %49, label %51, label %50

50:                                               ; preds = %47
  call void @llvm.lifetime.end.p0(i64 4, ptr %6) #8
  br label %62

51:                                               ; preds = %47
  %52 = load i32, ptr %6, align 4, !tbaa !11
  %53 = sext i32 %52 to i64
  %54 = getelementptr inbounds [27 x ptr], ptr @_ZN12_GLOBAL__N_14mapsE, i64 0, i64 %53
  %55 = load ptr, ptr %54, align 8, !tbaa !48
  call void @ucptrie_close_77(ptr noundef %55)
  %56 = load i32, ptr %6, align 4, !tbaa !11
  %57 = sext i32 %56 to i64
  %58 = getelementptr inbounds [27 x ptr], ptr @_ZN12_GLOBAL__N_14mapsE, i64 0, i64 %57
  store ptr null, ptr %58, align 8, !tbaa !48
  br label %59

59:                                               ; preds = %51
  %60 = load i32, ptr %6, align 4, !tbaa !11
  %61 = add nsw i32 %60, 1
  store i32 %61, ptr %6, align 4, !tbaa !11
  br label %47, !llvm.loop !74

62:                                               ; preds = %50
  ret i8 1
}