; Function Attrs: mustprogress uwtable
define internal noundef signext i8 @_ZN12_GLOBAL__N_127characterproperties_cleanupEv() #0 personality ptr @__gxx_personality_v0 {
  br label %1

1:                                                ; preds = %0, %5
  %.015.idx19 = phi i64 [ 0, %0 ], [ %.015.add, %5 ]
  %.015.ptr20 = getelementptr inbounds nuw i8, ptr @_ZN12_GLOBAL__N_111gInclusionsE, i64 %.015.idx19
  %2 = load ptr, ptr %.015.ptr20, align 16, !tbaa !26
  %3 = icmp eq ptr %2, null
  br i1 %3, label %5, label %4

4:                                                ; preds = %1
  tail call void @_ZN6icu_7710UnicodeSetD1Ev(ptr noundef nonnull align 8 dereferenceable(200) %2) #8
  tail call void @_ZN6icu_777UMemorydlEPv(ptr noundef nonnull %2) #8
  br label %5

5:                                                ; preds = %4, %1
  store ptr null, ptr %.015.ptr20, align 16, !tbaa !26
  %6 = getelementptr inbounds nuw i8, ptr %.015.ptr20, i64 8
  store atomic i32 0, ptr %6 seq_cst, align 8
  %.015.add = add nuw nsw i64 %.015.idx19, 16
  %.not = icmp eq i64 %.015.add, 752
  br i1 %.not, label %.preheader18, label %1

.preheader18:                                     ; preds = %5, %11
  %indvars.iv = phi i64 [ %indvars.iv.next, %11 ], [ 0, %5 ]
  %7 = getelementptr inbounds nuw [76 x ptr], ptr @_ZN12_GLOBAL__N_14setsE, i64 0, i64 %indvars.iv
  %8 = load ptr, ptr %7, align 8, !tbaa !38
  %9 = icmp eq ptr %8, null
  br i1 %9, label %11, label %10

10:                                               ; preds = %.preheader18
  tail call void @_ZN6icu_7710UnicodeSetD1Ev(ptr noundef nonnull align 8 dereferenceable(200) %8) #8
  tail call void @_ZN6icu_777UMemorydlEPv(ptr noundef nonnull %8) #8
  br label %11

11:                                               ; preds = %10, %.preheader18
  store ptr null, ptr %7, align 8, !tbaa !38
  %indvars.iv.next = add nuw nsw i64 %indvars.iv, 1
  %exitcond.not = icmp eq i64 %indvars.iv.next, 76
  br i1 %exitcond.not, label %.preheader, label %.preheader18, !llvm.loop !48

12:                                               ; preds = %.preheader
  ret i8 1

.preheader:                                       ; preds = %11, %.preheader
  %indvars.iv24 = phi i64 [ %indvars.iv.next25, %.preheader ], [ 0, %11 ]
  %13 = getelementptr inbounds nuw [27 x ptr], ptr @_ZN12_GLOBAL__N_14mapsE, i64 0, i64 %indvars.iv24
  %14 = load ptr, ptr %13, align 8, !tbaa !41
  tail call void @ucptrie_close_77(ptr noundef %14)
  store ptr null, ptr %13, align 8, !tbaa !41
  %indvars.iv.next25 = add nuw nsw i64 %indvars.iv24, 1
  %exitcond27.not = icmp eq i64 %indvars.iv.next25, 27
  br i1 %exitcond27.not, label %12, label %.preheader, !llvm.loop !49
}